
asm.elf:     file format elf32-littleriscv


Disassembly of section .init:

00000000 <_etext>:
   0:	00000297          	auipc	t0,0x0
   4:	08c28293          	addi	t0,t0,140 # 8c <trap_handler>
   8:	30529073          	csrw	mtvec,t0
   c:	08000313          	li	t1,128
  10:	30032073          	csrs	mstatus,t1
  14:	000013b7          	lui	t2,0x1
  18:	88838393          	addi	t2,t2,-1912 # 888 <_bss_end+0x778>
  1c:	3043a073          	csrs	mie,t2
  20:	10400313          	li	t1,260
  24:	34031073          	csrw	mscratch,t1
  28:	30002373          	csrr	t1,mstatus
  2c:	ffffe3b7          	lui	t2,0xffffe
  30:	7ff38393          	addi	t2,t2,2047 # ffffe7ff <_end+0xffffc6ef>
  34:	00737333          	and	t1,t1,t2
  38:	30031073          	csrw	mstatus,t1
  3c:	00000297          	auipc	t0,0x0
  40:	01028293          	addi	t0,t0,16 # 4c <main>
  44:	34129073          	csrw	mepc,t0
  48:	30200073          	mret

0000004c <main>:
  4c:	123452b7          	lui	t0,0x12345
  50:	67828293          	addi	t0,t0,1656 # 12345678 <_end+0x12343568>
  54:	edcbb337          	lui	t1,0xedcbb
  58:	98730313          	addi	t1,t1,-1657 # edcba987 <_end+0xedcb8877>
  5c:	98765537          	lui	a0,0x98765
  60:	43250513          	addi	a0,a0,1074 # 98765432 <_end+0x98763322>
  64:	301013f3          	csrrw	t2,misa,zero
  68:	340293f3          	csrrw	t2,mscratch,t0
  6c:	340323f3          	csrrs	t2,mscratch,t1
  70:	340333f3          	csrrc	t2,mscratch,t1
  74:	00000073          	ecall

00000078 <wfi>:
  78:	10500073          	wfi
  7c:	10500073          	wfi
  80:	10500073          	wfi
  84:	10500073          	wfi
  88:	ff1ff06f          	j	78 <wfi>

0000008c <trap_handler>:
  8c:	34051573          	csrrw	a0,mscratch,a0
  90:	342025f3          	csrr	a1,mcause
  94:	0405da63          	bgez	a1,e8 <exc_handler>
  98:	03f5f593          	andi	a1,a1,63
  9c:	00b00613          	li	a2,11
  a0:	00c58c63          	beq	a1,a2,b8 <MEI_handler>
  a4:	00300613          	li	a2,3
  a8:	02c58063          	beq	a1,a2,c8 <MSI_handler>
  ac:	00700613          	li	a2,7
  b0:	02c58463          	beq	a1,a2,d8 <MTI_handler>
  b4:	0440006f          	j	f8 <return>

000000b8 <MEI_handler>:
  b8:	bbbbc5b7          	lui	a1,0xbbbbc
  bc:	bbb58593          	addi	a1,a1,-1093 # bbbbbbbb <_end+0xbbbb9aab>
  c0:	34359073          	csrw	mtval,a1
  c4:	0340006f          	j	f8 <return>

000000c8 <MSI_handler>:
  c8:	333335b7          	lui	a1,0x33333
  cc:	33358593          	addi	a1,a1,819 # 33333333 <_end+0x33331223>
  d0:	34359073          	csrw	mtval,a1
  d4:	0240006f          	j	f8 <return>

000000d8 <MTI_handler>:
  d8:	777775b7          	lui	a1,0x77777
  dc:	77758593          	addi	a1,a1,1911 # 77777777 <_end+0x77775667>
  e0:	34359073          	csrw	mtval,a1
  e4:	0140006f          	j	f8 <return>

000000e8 <exc_handler>:
  e8:	341025f3          	csrr	a1,mepc
  ec:	00458593          	addi	a1,a1,4
  f0:	34159073          	csrw	mepc,a1
  f4:	0040006f          	j	f8 <return>

000000f8 <return>:
  f8:	34051573          	csrrw	a0,mscratch,a0
  fc:	30200073          	mret
